; Function Attrs: nounwind uwtable
define void @Kit_DsdTest(ptr noundef %0, i32 noundef %1) local_unnamed_addr #0 {
  %3 = tail call noundef ptr @Kit_DsdDecomposeInt(ptr noundef %0, i32 noundef %1, i32 noundef 0)
  %4 = tail call ptr @Kit_DsdExpand(ptr noundef %3)
  tail call void @Kit_DsdNtkFree(ptr noundef %3)
  %5 = load ptr, ptr @stdout, align 8, !tbaa !54
  %6 = tail call i64 @fwrite(ptr nonnull @.str.8, i64 4, i64 1, ptr %5)
  %7 = getelementptr inbounds nuw i8, ptr %4, i64 6
  %8 = load i16, ptr %7, align 2, !tbaa !51
  %9 = and i16 %8, 1
  %.not.i = icmp eq i16 %9, 0
  br i1 %.not.i, label %Kit_DsdPrint.exit, label %10

10:                                               ; preds = %2
  %fputc.i = tail call i32 @fputc(i32 33, ptr %5)
  %.pre.i = load i16, ptr %7, align 2, !tbaa !51
  br label %Kit_DsdPrint.exit

Kit_DsdPrint.exit:                                ; preds = %2, %10
  %11 = phi i16 [ %.pre.i, %10 ], [ %8, %2 ]
  %12 = lshr i16 %11, 1
  %13 = zext nneg i16 %12 to i32
  tail call void @Kit_DsdPrint_rec(ptr noundef %5, ptr noundef nonnull readonly %4, i32 noundef %13)
  %putchar = tail call i32 @putchar(i32 10)
  %.val = load i16, ptr %4, align 8, !tbaa !34
  %14 = getelementptr i8, ptr %4, i64 4
  %.val13 = load i16, ptr %14, align 4, !tbaa !38
  %15 = zext i16 %.val to i32
  %16 = zext i16 %.val13 to i32
  %17 = add nuw nsw i32 %16, %15
  %18 = tail call ptr @Kit_DsdManAlloc(i32 noundef %1, i32 noundef %17)
  %19 = load i16, ptr %4, align 8, !tbaa !34
  %.not22.i = icmp eq i16 %19, 0
  br i1 %.not22.i, label %._crit_edge.i, label %.lr.ph.i

.lr.ph.i:                                         ; preds = %Kit_DsdPrint.exit
  %20 = getelementptr inbounds nuw i8, ptr %18, i64 16
  %21 = load ptr, ptr %20, align 8, !tbaa !25
  %22 = getelementptr i8, ptr %21, i64 8
  %.val15.i = load ptr, ptr %22, align 8, !tbaa !19
  %23 = getelementptr inbounds nuw i8, ptr %18, i64 8
  %24 = load ptr, ptr %23, align 8, !tbaa !24
  %25 = getelementptr i8, ptr %24, i64 8
  %.val.i = load ptr, ptr %25, align 8, !tbaa !19
  %wide.trip.count.i = zext i16 %19 to i64
  %.pre = load i32, ptr %18, align 8, !tbaa !3
  %26 = icmp slt i32 %.pre, 6
  %27 = add nsw i32 %.pre, -5
  %28 = shl nuw i32 1, %27
  %spec.select.i.i = select i1 %26, i32 1, i32 %28
  %29 = icmp sgt i32 %spec.select.i.i, 0
  %30 = zext nneg i32 %spec.select.i.i to i64
  br label %31

31:                                               ; preds = %Kit_TruthCopy.exit.i, %.lr.ph.i
  %indvars.iv.i = phi i64 [ 0, %.lr.ph.i ], [ %indvars.iv.next.i, %Kit_TruthCopy.exit.i ]
  %32 = getelementptr inbounds nuw ptr, ptr %.val15.i, i64 %indvars.iv.i
  %33 = load ptr, ptr %32, align 8, !tbaa !13
  %34 = getelementptr inbounds nuw ptr, ptr %.val.i, i64 %indvars.iv.i
  %35 = load ptr, ptr %34, align 8, !tbaa !13
  br i1 %29, label %select.unfold.i.i, label %Kit_TruthCopy.exit.i

select.unfold.i.i:                                ; preds = %31, %select.unfold.i.i
  %indvars.iv.i.i = phi i64 [ %indvars.iv.next.i.i, %select.unfold.i.i ], [ %30, %31 ]
  %indvars.iv.next.i.i = add nsw i64 %indvars.iv.i.i, -1
  %36 = getelementptr inbounds nuw i32, ptr %35, i64 %indvars.iv.next.i.i
  %37 = load i32, ptr %36, align 4, !tbaa !20
  %38 = getelementptr inbounds nuw i32, ptr %33, i64 %indvars.iv.next.i.i
  store i32 %37, ptr %38, align 4, !tbaa !20
  %39 = icmp samesign ugt i64 %indvars.iv.i.i, 1
  br i1 %39, label %select.unfold.i.i, label %Kit_TruthCopy.exit.i, !llvm.loop !56

Kit_TruthCopy.exit.i:                             ; preds = %select.unfold.i.i, %31
  %indvars.iv.next.i = add nuw nsw i64 %indvars.iv.i, 1
  %exitcond.not.i = icmp eq i64 %indvars.iv.next.i, %wide.trip.count.i
  br i1 %exitcond.not.i, label %._crit_edge.i, label %31, !llvm.loop !57

._crit_edge.i:                                    ; preds = %Kit_TruthCopy.exit.i, %Kit_DsdPrint.exit
  %40 = load i16, ptr %7, align 2, !tbaa !51
  %41 = lshr i16 %40, 1
  %42 = zext nneg i16 %41 to i32
  %43 = tail call ptr @Kit_DsdTruthComputeNode_rec(ptr noundef %18, ptr noundef nonnull %4, i32 noundef %42)
  %44 = load i16, ptr %7, align 2, !tbaa !51
  %45 = and i16 %44, 1
  %.not.i14 = icmp eq i16 %45, 0
  br i1 %.not.i14, label %Kit_DsdTruthCompute.exit, label %46

46:                                               ; preds = %._crit_edge.i
  %47 = load i16, ptr %4, align 8, !tbaa !34
  %48 = zext i16 %47 to i32
  %49 = icmp ult i16 %47, 6
  %50 = add nsw i32 %48, -5
  %51 = shl nuw i32 1, %50
  %spec.select.i16.i = select i1 %49, i32 1, i32 %51
  %52 = icmp sgt i32 %spec.select.i16.i, 0
  br i1 %52, label %select.unfold.preheader.i17.i, label %Kit_DsdTruthCompute.exit

select.unfold.preheader.i17.i:                    ; preds = %46
  %53 = zext nneg i32 %spec.select.i16.i to i64
  br label %select.unfold.i18.i

select.unfold.i18.i:                              ; preds = %select.unfold.i18.i, %select.unfold.preheader.i17.i
  %indvars.iv.i19.i = phi i64 [ %53, %select.unfold.preheader.i17.i ], [ %indvars.iv.next.i20.i, %select.unfold.i18.i ]
  %indvars.iv.next.i20.i = add nsw i64 %indvars.iv.i19.i, -1
  %54 = getelementptr inbounds nuw i32, ptr %43, i64 %indvars.iv.next.i20.i
  %55 = load i32, ptr %54, align 4, !tbaa !20
  %56 = xor i32 %55, -1
  store i32 %56, ptr %54, align 4, !tbaa !20
  %57 = icmp samesign ugt i64 %indvars.iv.i19.i, 1
  br i1 %57, label %select.unfold.i18.i, label %Kit_DsdTruthCompute.exit, !llvm.loop !58

Kit_DsdTruthCompute.exit:                         ; preds = %select.unfold.i18.i, %._crit_edge.i, %46
  %58 = icmp slt i32 %1, 6
  %59 = add nsw i32 %1, -5
  %60 = shl nuw i32 1, %59
  %spec.select.i = select i1 %58, i32 1, i32 %60
  %61 = zext i32 %spec.select.i to i64
  br label %select.unfold.i

select.unfold.i:                                  ; preds = %64, %Kit_DsdTruthCompute.exit
  %indvars.iv.i15 = phi i64 [ %61, %Kit_DsdTruthCompute.exit ], [ %65, %64 ]
  %62 = trunc nuw i64 %indvars.iv.i15 to i32
  %63 = icmp sgt i32 %62, 0
  br i1 %63, label %64, label %Extra_TruthIsEqual.exit

64:                                               ; preds = %select.unfold.i
  %65 = add nsw i64 %indvars.iv.i15, -1
  %66 = getelementptr inbounds nuw i32, ptr %0, i64 %65
  %67 = load i32, ptr %66, align 4, !tbaa !20
  %68 = getelementptr inbounds nuw i32, ptr %43, i64 %65
  %69 = load i32, ptr %68, align 4, !tbaa !20
  %.not.i16 = icmp eq i32 %67, %69
  br i1 %.not.i16, label %select.unfold.i, label %70, !llvm.loop !59

70:                                               ; preds = %64
  %puts = tail call i32 @puts(ptr nonnull dereferenceable(1) @str.2)
  br label %Extra_TruthIsEqual.exit

Extra_TruthIsEqual.exit:                          ; preds = %select.unfold.i, %70
  tail call void @Kit_DsdManFree(ptr noundef %18)
  tail call void @Kit_DsdNtkFree(ptr noundef nonnull %4)
  ret void
}